target datalayout = "e-m:e-p270:32:32-p271:32:32-p272:64:64-i64:64-i128:128-f80:128-n8:16:32:64-S128"
target triple = "x86_64-pc-linux-gnu"

; Function Attrs: nounwind uwtable
define internal i32 @wc_SignatureDerEncode(i32 noundef %0, ptr noundef %1, i32 noundef %2, ptr noundef %3) #0 {
  %5 = alloca i32, align 4
  %6 = alloca i32, align 4
  %7 = alloca ptr, align 8
  %8 = alloca i32, align 4
  %9 = alloca ptr, align 8
  %10 = alloca i32, align 4
  %11 = alloca i32, align 4
  %12 = alloca i32, align 4
  store i32 %0, ptr %6, align 4, !tbaa !3
  store ptr %1, ptr %7, align 8, !tbaa !9
  store i32 %2, ptr %8, align 4, !tbaa !3
  store ptr %3, ptr %9, align 8, !tbaa !14
  call void @llvm.lifetime.start.p0(i64 4, ptr %10) #6
  call void @llvm.lifetime.start.p0(i64 4, ptr %11) #6
  %13 = load i32, ptr %6, align 4, !tbaa !3
  %14 = call i32 @wc_HashGetOID(i32 noundef %13)
  store i32 %14, ptr %10, align 4, !tbaa !3
  %15 = load i32, ptr %10, align 4, !tbaa !3
  %16 = icmp slt i32 %15, 0
  br i1 %16, label %17, label %19

17:                                               ; preds = %4
  %18 = load i32, ptr %10, align 4, !tbaa !3
  store i32 %18, ptr %5, align 4
  store i32 1, ptr %12, align 4
  br label %33

19:                                               ; preds = %4
  %20 = load i32, ptr %10, align 4, !tbaa !3
  store i32 %20, ptr %11, align 4, !tbaa !3
  %21 = load ptr, ptr %7, align 8, !tbaa !9
  %22 = load ptr, ptr %7, align 8, !tbaa !9
  %23 = load i32, ptr %8, align 4, !tbaa !3
  %24 = load i32, ptr %11, align 4, !tbaa !3
  %25 = call i32 @wc_EncodeSignature(ptr noundef %21, ptr noundef %22, i32 noundef %23, i32 noundef %24)
  store i32 %25, ptr %10, align 4, !tbaa !3
  %26 = load i32, ptr %10, align 4, !tbaa !3
  %27 = icmp sgt i32 %26, 0
  br i1 %27, label %28, label %31

28:                                               ; preds = %19
  %29 = load i32, ptr %10, align 4, !tbaa !3
  %30 = load ptr, ptr %9, align 8, !tbaa !14
  store i32 %29, ptr %30, align 4, !tbaa !3
  store i32 0, ptr %10, align 4, !tbaa !3
  br label %31

31:                                               ; preds = %28, %19
  %32 = load i32, ptr %10, align 4, !tbaa !3
  store i32 %32, ptr %5, align 4
  store i32 1, ptr %12, align 4
  br label %33

33:                                               ; preds = %31, %17
  call void @llvm.lifetime.end.p0(i64 4, ptr %11) #6
  call void @llvm.lifetime.end.p0(i64 4, ptr %10) #6
  %34 = load i32, ptr %5, align 4
  ret i32 %34
}

; Function Attrs: nounwind uwtable
define i32 @wc_SignatureGetSize(i32 noundef %0, ptr noundef %1, i32 noundef %2) #0 {
  %4 = alloca i32, align 4
  %5 = alloca ptr, align 8
  %6 = alloca i32, align 4
  %7 = alloca i32, align 4
  store i32 %0, ptr %4, align 4, !tbaa !3
  store ptr %1, ptr %5, align 8, !tbaa !7
  store i32 %2, ptr %6, align 4, !tbaa !3
  call void @llvm.lifetime.start.p0(i64 4, ptr %7) #6
  store i32 -173, ptr %7, align 4, !tbaa !3
  %8 = load i32, ptr %4, align 4, !tbaa !3
  switch i32 %8, label %34 [
    i32 1, label %9
    i32 3, label %21
    i32 2, label %21
    i32 0, label %33
  ]

9:                                                ; preds = %3
  %10 = load i32, ptr %6, align 4, !tbaa !3
  %11 = zext i32 %10 to i64
  %12 = icmp uge i64 %11, 4208
  br i1 %12, label %13, label %16

13:                                               ; preds = %9
  %14 = load ptr, ptr %5, align 8, !tbaa !7
  %15 = call i32 @wc_ecc_sig_size(ptr noundef %14)
  store i32 %15, ptr %7, align 4, !tbaa !3
  br label %20

16:                                               ; preds = %9
  br label %17

17:                                               ; preds = %16
  br label %18

18:                                               ; preds = %17
  br label %19

19:                                               ; preds = %18
  br label %20

20:                                               ; preds = %19, %13
  br label %35

21:                                               ; preds = %3, %3
  %22 = load i32, ptr %6, align 4, !tbaa !3
  %23 = zext i32 %22 to i64
  %24 = icmp uge i64 %23, 8368
  br i1 %24, label %25, label %28

25:                                               ; preds = %21
  %26 = load ptr, ptr %5, align 8, !tbaa !7
  %27 = call i32 @wc_RsaEncryptSize(ptr noundef %26)
  store i32 %27, ptr %7, align 4, !tbaa !3
  br label %32

28:                                               ; preds = %21
  br label %29

29:                                               ; preds = %28
  br label %30

30:                                               ; preds = %29
  br label %31

31:                                               ; preds = %30
  br label %32

32:                                               ; preds = %31, %25
  br label %35

33:                                               ; preds = %3
  br label %34

34:                                               ; preds = %3, %33
  store i32 -173, ptr %7, align 4, !tbaa !3
  br label %35

35:                                               ; preds = %34, %32, %20
  %36 = load i32, ptr %7, align 4, !tbaa !3
  call void @llvm.lifetime.end.p0(i64 4, ptr %7) #6
  ret i32 %36
}

; Function Attrs: nounwind uwtable
define i32 @wc_SignatureVerify(i32 noundef %0, i32 noundef %1, ptr noundef %2, i32 noundef %3, ptr noundef %4, i32 noundef %5, ptr noundef %6, i32 noundef %7) #0 {
  %9 = alloca i32, align 4
  %10 = alloca i32, align 4
  %11 = alloca i32, align 4
  %12 = alloca ptr, align 8
  %13 = alloca i32, align 4
  %14 = alloca ptr, align 8
  %15 = alloca i32, align 4
  %16 = alloca ptr, align 8
  %17 = alloca i32, align 4
  %18 = alloca i32, align 4
  %19 = alloca i32, align 4
  %20 = alloca i32, align 4
  %21 = alloca [100 x i8], align 16
  %22 = alloca i32, align 4
  store i32 %0, ptr %10, align 4, !tbaa !3
  store i32 %1, ptr %11, align 4, !tbaa !3
  store ptr %2, ptr %12, align 8, !tbaa !9
  store i32 %3, ptr %13, align 4, !tbaa !3
  store ptr %4, ptr %14, align 8, !tbaa !9
  store i32 %5, ptr %15, align 4, !tbaa !3
  store ptr %6, ptr %16, align 8, !tbaa !7
  store i32 %7, ptr %17, align 4, !tbaa !3
  call void @llvm.lifetime.start.p0(i64 4, ptr %18) #6
  call void @llvm.lifetime.start.p0(i64 4, ptr %19) #6
  call void @llvm.lifetime.start.p0(i64 4, ptr %20) #6
  call void @llvm.lifetime.start.p0(i64 100, ptr %21) #6
  %23 = load ptr, ptr %12, align 8, !tbaa !9
  %24 = icmp eq ptr %23, null
  br i1 %24, label %40, label %25

25:                                               ; preds = %8
  %26 = load i32, ptr %13, align 4, !tbaa !3
  %27 = icmp eq i32 %26, 0
  br i1 %27, label %40, label %28

28:                                               ; preds = %25
  %29 = load ptr, ptr %14, align 8, !tbaa !9
  %30 = icmp eq ptr %29, null
  br i1 %30, label %40, label %31

31:                                               ; preds = %28
  %32 = load i32, ptr %15, align 4, !tbaa !3
  %33 = icmp eq i32 %32, 0
  br i1 %33, label %40, label %34

34:                                               ; preds = %31
  %35 = load ptr, ptr %16, align 8, !tbaa !7
  %36 = icmp eq ptr %35, null
  br i1 %36, label %40, label %37

37:                                               ; preds = %34
  %38 = load i32, ptr %17, align 4, !tbaa !3
  %39 = icmp eq i32 %38, 0
  br i1 %39, label %40, label %41

40:                                               ; preds = %37, %34, %31, %28, %25, %8
  store i32 -173, ptr %9, align 4
  store i32 1, ptr %22, align 4
  br label %102

41:                                               ; preds = %37
  %42 = load i32, ptr %15, align 4, !tbaa !3
  %43 = load i32, ptr %11, align 4, !tbaa !3
  %44 = load ptr, ptr %16, align 8, !tbaa !7
  %45 = load i32, ptr %17, align 4, !tbaa !3
  %46 = call i32 @wc_SignatureGetSize(i32 noundef %43, ptr noundef %44, i32 noundef %45)
  %47 = icmp sgt i32 %42, %46
  br i1 %47, label %48, label %52

48:                                               ; preds = %41
  br label %49

49:                                               ; preds = %48
  br label %50

50:                                               ; preds = %49
  br label %51

51:                                               ; preds = %50
  store i32 -173, ptr %9, align 4
  store i32 1, ptr %22, align 4
  br label %102

52:                                               ; preds = %41
  %53 = load i32, ptr %10, align 4, !tbaa !3
  %54 = call i32 @wc_HashGetDigestSize(i32 noundef %53)
  store i32 %54, ptr %18, align 4, !tbaa !3
  %55 = load i32, ptr %18, align 4, !tbaa !3
  %56 = icmp slt i32 %55, 0
  br i1 %56, label %57, label %62

57:                                               ; preds = %52
  br label %58

58:                                               ; preds = %57
  br label %59

59:                                               ; preds = %58
  br label %60

60:                                               ; preds = %59
  %61 = load i32, ptr %18, align 4, !tbaa !3
  store i32 %61, ptr %9, align 4
  store i32 1, ptr %22, align 4
  br label %102

62:                                               ; preds = %52
  %63 = load i32, ptr %18, align 4, !tbaa !3
  store i32 %63, ptr %19, align 4, !tbaa !3
  store i32 %63, ptr %20, align 4, !tbaa !3
  %64 = load i32, ptr %11, align 4, !tbaa !3
  %65 = icmp eq i32 %64, 3
  br i1 %65, label %66, label %69

66:                                               ; preds = %62
  %67 = load i32, ptr %20, align 4, !tbaa !3
  %68 = add i32 %67, 36
  store i32 %68, ptr %20, align 4, !tbaa !3
  br label %69

69:                                               ; preds = %66, %62
  %70 = load i32, ptr %10, align 4, !tbaa !3
  %71 = load ptr, ptr %12, align 8, !tbaa !9
  %72 = load i32, ptr %13, align 4, !tbaa !3
  %73 = getelementptr inbounds [100 x i8], ptr %21, i64 0, i64 0
  %74 = load i32, ptr %19, align 4, !tbaa !3
  %75 = call i32 @wc_Hash(i32 noundef %70, ptr noundef %71, i32 noundef %72, ptr noundef %73, i32 noundef %74)
  store i32 %75, ptr %18, align 4, !tbaa !3
  %76 = load i32, ptr %18, align 4, !tbaa !3
  %77 = icmp eq i32 %76, 0
  br i1 %77, label %78, label %100

78:                                               ; preds = %69
  %79 = load i32, ptr %11, align 4, !tbaa !3
  %80 = icmp eq i32 %79, 3
  br i1 %80, label %81, label %86

81:                                               ; preds = %78
  %82 = load i32, ptr %10, align 4, !tbaa !3
  %83 = getelementptr inbounds [100 x i8], ptr %21, i64 0, i64 0
  %84 = load i32, ptr %19, align 4, !tbaa !3
  %85 = call i32 @wc_SignatureDerEncode(i32 noundef %82, ptr noundef %83, i32 noundef %84, ptr noundef %20)
  store i32 %85, ptr %18, align 4, !tbaa !3
  br label %86

86:                                               ; preds = %81, %78
  %87 = load i32, ptr %18, align 4, !tbaa !3
  %88 = icmp eq i32 %87, 0
  br i1 %88, label %89, label %99

89:                                               ; preds = %86
  %90 = load i32, ptr %10, align 4, !tbaa !3
  %91 = load i32, ptr %11, align 4, !tbaa !3
  %92 = getelementptr inbounds [100 x i8], ptr %21, i64 0, i64 0
  %93 = load i32, ptr %20, align 4, !tbaa !3
  %94 = load ptr, ptr %14, align 8, !tbaa !9
  %95 = load i32, ptr %15, align 4, !tbaa !3
  %96 = load ptr, ptr %16, align 8, !tbaa !7
  %97 = load i32, ptr %17, align 4, !tbaa !3
  %98 = call i32 @wc_SignatureVerifyHash(i32 noundef %90, i32 noundef %91, ptr noundef %92, i32 noundef %93, ptr noundef %94, i32 noundef %95, ptr noundef %96, i32 noundef %97)
  store i32 %98, ptr %18, align 4, !tbaa !3
  br label %99

99:                                               ; preds = %89, %86
  br label %100

100:                                              ; preds = %99, %69
  %101 = load i32, ptr %18, align 4, !tbaa !3
  store i32 %101, ptr %9, align 4
  store i32 1, ptr %22, align 4
  br label %102

102:                                              ; preds = %100, %60, %51, %40
  call void @llvm.lifetime.end.p0(i64 100, ptr %21) #6
  call void @llvm.lifetime.end.p0(i64 4, ptr %20) #6
  call void @llvm.lifetime.end.p0(i64 4, ptr %19) #6
  call void @llvm.lifetime.end.p0(i64 4, ptr %18) #6
  %103 = load i32, ptr %9, align 4
  ret i32 %103
}