; Function Attrs: nounwind uwtable
define i32 @wc_SignatureVerify(i32 noundef %0, i32 noundef %1, ptr noundef %2, i32 noundef %3, ptr noundef %4, i32 noundef %5, ptr noundef %6, i32 noundef %7) local_unnamed_addr #0 {
  %9 = alloca [100 x i8], align 16
  call void @llvm.lifetime.start.p0(i64 100, ptr nonnull %9) #7
  %10 = icmp eq ptr %2, null
  %11 = icmp eq i32 %3, 0
  %or.cond = or i1 %10, %11
  %12 = icmp eq ptr %4, null
  %or.cond3 = or i1 %or.cond, %12
  %13 = icmp eq i32 %5, 0
  %or.cond5 = or i1 %or.cond3, %13
  %14 = icmp eq ptr %6, null
  %or.cond7 = or i1 %or.cond5, %14
  %15 = icmp eq i32 %7, 0
  %or.cond9 = or i1 %or.cond7, %15
  br i1 %or.cond9, label %wc_SignatureDerEncode.exit.thread55, label %16

16:                                               ; preds = %8
  switch i32 %1, label %wc_SignatureGetSize.exit [
    i32 1, label %17
    i32 3, label %21
    i32 2, label %21
  ]

17:                                               ; preds = %16
  %18 = icmp ugt i32 %7, 4207
  br i1 %18, label %19, label %wc_SignatureGetSize.exit

19:                                               ; preds = %17
  %20 = tail call i32 @wc_ecc_sig_size(ptr noundef nonnull %6) #7
  br label %wc_SignatureGetSize.exit

21:                                               ; preds = %16, %16
  %22 = icmp ugt i32 %7, 8367
  br i1 %22, label %23, label %wc_SignatureGetSize.exit

23:                                               ; preds = %21
  %24 = tail call i32 @wc_RsaEncryptSize(ptr noundef nonnull %6) #7
  br label %wc_SignatureGetSize.exit

wc_SignatureGetSize.exit:                         ; preds = %16, %17, %19, %21, %23
  %.0.i = phi i32 [ %24, %23 ], [ -173, %21 ], [ %20, %19 ], [ -173, %17 ], [ -173, %16 ]
  %25 = icmp sgt i32 %5, %.0.i
  br i1 %25, label %wc_SignatureDerEncode.exit.thread55, label %26

26:                                               ; preds = %wc_SignatureGetSize.exit
  %27 = tail call i32 @wc_HashGetDigestSize(i32 noundef %0) #7
  %28 = icmp slt i32 %27, 0
  br i1 %28, label %wc_SignatureDerEncode.exit.thread55, label %29

29:                                               ; preds = %26
  %30 = add nuw i32 %27, 36
  %31 = call i32 @wc_Hash(i32 noundef %0, ptr noundef nonnull %2, i32 noundef %3, ptr noundef nonnull %9, i32 noundef %27) #7
  %32 = icmp eq i32 %31, 0
  br i1 %32, label %33, label %wc_SignatureDerEncode.exit.thread55

33:                                               ; preds = %29
  %34 = icmp eq i32 %1, 3
  br i1 %34, label %35, label %wc_SignatureDerEncode.exit.thread

35:                                               ; preds = %33
  %36 = call i32 @wc_HashGetOID(i32 noundef %0) #7
  %37 = icmp slt i32 %36, 0
  br i1 %37, label %wc_SignatureDerEncode.exit.thread55, label %38

38:                                               ; preds = %35
  %39 = call i32 @wc_EncodeSignature(ptr noundef nonnull %9, ptr noundef nonnull %9, i32 noundef range(i32 0, -2147483648) %27, i32 noundef %36) #7
  %40 = icmp sgt i32 %39, 0
  br i1 %40, label %wc_SignatureDerEncode.exit.thread, label %wc_SignatureDerEncode.exit

wc_SignatureDerEncode.exit:                       ; preds = %38
  %41 = icmp eq i32 %39, 0
  br i1 %41, label %wc_SignatureDerEncode.exit.thread, label %wc_SignatureDerEncode.exit.thread55

wc_SignatureDerEncode.exit.thread:                ; preds = %38, %33, %wc_SignatureDerEncode.exit
  %.05054 = phi i32 [ %30, %wc_SignatureDerEncode.exit ], [ %27, %33 ], [ %39, %38 ]
  %42 = call i32 @wc_SignatureVerifyHash(i32 noundef %0, i32 noundef %1, ptr noundef nonnull %9, i32 noundef %.05054, ptr noundef nonnull %4, i32 noundef %5, ptr noundef nonnull %6, i32 noundef %7)
  br label %wc_SignatureDerEncode.exit.thread55

wc_SignatureDerEncode.exit.thread55:              ; preds = %35, %29, %wc_SignatureDerEncode.exit.thread, %wc_SignatureDerEncode.exit, %26, %wc_SignatureGetSize.exit, %8
  %.0 = phi i32 [ -173, %8 ], [ -173, %wc_SignatureGetSize.exit ], [ %27, %26 ], [ %42, %wc_SignatureDerEncode.exit.thread ], [ %39, %wc_SignatureDerEncode.exit ], [ %31, %29 ], [ %36, %35 ]
  call void @llvm.lifetime.end.p0(i64 100, ptr nonnull %9) #7
  ret i32 %.0
}